; Function Attrs: mustprogress nofree norecurse nosync nounwind willreturn memory(read, inaccessiblemem: none) uwtable
define hidden noundef ptr @_ZNK13InstanceKlass17find_local_methodEPK6SymbolS2_N5Klass18OverpassLookupModeENS3_16StaticLookupModeENS3_17PrivateLookupModeE(ptr nocapture noundef nonnull readonly align 8 dereferenceable(464) %0, ptr noundef %1, ptr noundef %2, i32 noundef %3, i32 noundef %4, i32 noundef %5) local_unnamed_addr #3 align 2 {
  %7 = getelementptr inbounds i8, ptr %0, i64 400
  %8 = load ptr, ptr %7, align 8
  %9 = tail call noundef i32 @_ZN13InstanceKlass17find_method_indexEPK5ArrayIP6MethodEPK6SymbolS8_N5Klass18OverpassLookupModeENS9_16StaticLookupModeENS9_17PrivateLookupModeE(ptr noundef readonly %8, ptr noundef %1, ptr noundef %2, i32 noundef %3, i32 noundef %4, i32 noundef %5)
  %10 = icmp sgt i32 %9, -1
  br i1 %10, label %11, label %_ZN13InstanceKlass16find_method_implEPK5ArrayIP6MethodEPK6SymbolS8_N5Klass18OverpassLookupModeENS9_16StaticLookupModeENS9_17PrivateLookupModeE.exit

11:                                               ; preds = %6
  %12 = getelementptr inbounds i8, ptr %8, i64 8
  %13 = zext nneg i32 %9 to i64
  %14 = getelementptr inbounds ptr, ptr %12, i64 %13
  %15 = load ptr, ptr %14, align 8
  br label %_ZN13InstanceKlass16find_method_implEPK5ArrayIP6MethodEPK6SymbolS8_N5Klass18OverpassLookupModeENS9_16StaticLookupModeENS9_17PrivateLookupModeE.exit

_ZN13InstanceKlass16find_method_implEPK5ArrayIP6MethodEPK6SymbolS8_N5Klass18OverpassLookupModeENS9_16StaticLookupModeENS9_17PrivateLookupModeE.exit: ; preds = %6, %11
  %16 = phi ptr [ %15, %11 ], [ null, %6 ]
  ret ptr %16
}